; Function Attrs: nounwind uwtable
define range(i64 -64, 6) i64 @ZSTD_initDStream_usingDDict(ptr noundef captures(none) initializes((30176, 30180), (30236, 30240), (30332, 30336)) %0, ptr noundef %1) local_unnamed_addr #0 {
  %3 = getelementptr inbounds nuw i8, ptr %0, i64 30236
  store i32 0, ptr %3, align 4, !tbaa !127
  %4 = getelementptr inbounds nuw i8, ptr %0, i64 30332
  store i32 0, ptr %4, align 4, !tbaa !26
  %5 = getelementptr inbounds nuw i8, ptr %0, i64 30176
  store i32 1, ptr %5, align 8, !tbaa !28
  %6 = tail call i64 @ZSTD_DCtx_refDDict(ptr noundef %0, ptr noundef %1)
  %7 = icmp ult i64 %6, -119
  br i1 %7, label %8, label %13

8:                                                ; preds = %2
  %9 = getelementptr inbounds nuw i8, ptr %0, i64 30104
  %10 = load i32, ptr %9, align 8, !tbaa !34
  %11 = icmp eq i32 %10, 0
  %12 = select i1 %11, i64 5, i64 1
  br label %13

13:                                               ; preds = %2, %8
  %.1 = phi i64 [ %6, %2 ], [ %12, %8 ]
  ret i64 %.1
}